target datalayout = "e-m:e-p270:32:32-p271:32:32-p272:64:64-i64:64-i128:128-f80:128-n8:16:32:64-S128"
target triple = "x86_64-pc-linux-gnu"

%struct._generic_N_Vector = type { ptr, ptr, ptr }
%struct._N_VectorContent_Serial = type { i64, i32, ptr }

; Function Attrs: nounwind uwtable
define internal i32 @fQB(double noundef %0, ptr noundef %1, ptr noundef %2, ptr noundef %3, ptr noundef %4) #0 {
  %6 = alloca double, align 8
  %7 = alloca ptr, align 8
  %8 = alloca ptr, align 8
  %9 = alloca ptr, align 8
  %10 = alloca ptr, align 8
  %11 = alloca double, align 8
  %12 = alloca double, align 8
  %13 = alloca double, align 8
  %14 = alloca double, align 8
  %15 = alloca double, align 8
  %16 = alloca double, align 8
  %17 = alloca double, align 8
  %18 = alloca double, align 8
  %19 = alloca double, align 8
  store double %0, ptr %6, align 8, !tbaa !18
  store ptr %1, ptr %7, align 8, !tbaa !16
  store ptr %2, ptr %8, align 8, !tbaa !16
  store ptr %3, ptr %9, align 8, !tbaa !16
  store ptr %4, ptr %10, align 8, !tbaa !11
  call void @llvm.lifetime.start.p0(i64 8, ptr %11) #6
  call void @llvm.lifetime.start.p0(i64 8, ptr %12) #6
  call void @llvm.lifetime.start.p0(i64 8, ptr %13) #6
  call void @llvm.lifetime.start.p0(i64 8, ptr %14) #6
  call void @llvm.lifetime.start.p0(i64 8, ptr %15) #6
  call void @llvm.lifetime.start.p0(i64 8, ptr %16) #6
  call void @llvm.lifetime.start.p0(i64 8, ptr %17) #6
  call void @llvm.lifetime.start.p0(i64 8, ptr %18) #6
  call void @llvm.lifetime.start.p0(i64 8, ptr %19) #6
  %20 = load ptr, ptr %7, align 8, !tbaa !16
  %21 = getelementptr inbounds nuw %struct._generic_N_Vector, ptr %20, i32 0, i32 0
  %22 = load ptr, ptr %21, align 8, !tbaa !22
  %23 = getelementptr inbounds nuw %struct._N_VectorContent_Serial, ptr %22, i32 0, i32 2
  %24 = load ptr, ptr %23, align 8, !tbaa !25
  %25 = getelementptr inbounds double, ptr %24, i64 0
  %26 = load double, ptr %25, align 8, !tbaa !18
  store double %26, ptr %11, align 8, !tbaa !18
  %27 = load ptr, ptr %7, align 8, !tbaa !16
  %28 = getelementptr inbounds nuw %struct._generic_N_Vector, ptr %27, i32 0, i32 0
  %29 = load ptr, ptr %28, align 8, !tbaa !22
  %30 = getelementptr inbounds nuw %struct._N_VectorContent_Serial, ptr %29, i32 0, i32 2
  %31 = load ptr, ptr %30, align 8, !tbaa !25
  %32 = getelementptr inbounds double, ptr %31, i64 1
  %33 = load double, ptr %32, align 8, !tbaa !18
  store double %33, ptr %12, align 8, !tbaa !18
  %34 = load ptr, ptr %7, align 8, !tbaa !16
  %35 = getelementptr inbounds nuw %struct._generic_N_Vector, ptr %34, i32 0, i32 0
  %36 = load ptr, ptr %35, align 8, !tbaa !22
  %37 = getelementptr inbounds nuw %struct._N_VectorContent_Serial, ptr %36, i32 0, i32 2
  %38 = load ptr, ptr %37, align 8, !tbaa !25
  %39 = getelementptr inbounds double, ptr %38, i64 2
  %40 = load double, ptr %39, align 8, !tbaa !18
  store double %40, ptr %13, align 8, !tbaa !18
  %41 = load ptr, ptr %8, align 8, !tbaa !16
  %42 = getelementptr inbounds nuw %struct._generic_N_Vector, ptr %41, i32 0, i32 0
  %43 = load ptr, ptr %42, align 8, !tbaa !22
  %44 = getelementptr inbounds nuw %struct._N_VectorContent_Serial, ptr %43, i32 0, i32 2
  %45 = load ptr, ptr %44, align 8, !tbaa !25
  %46 = getelementptr inbounds double, ptr %45, i64 0
  %47 = load double, ptr %46, align 8, !tbaa !18
  store double %47, ptr %14, align 8, !tbaa !18
  %48 = load ptr, ptr %8, align 8, !tbaa !16
  %49 = getelementptr inbounds nuw %struct._generic_N_Vector, ptr %48, i32 0, i32 0
  %50 = load ptr, ptr %49, align 8, !tbaa !22
  %51 = getelementptr inbounds nuw %struct._N_VectorContent_Serial, ptr %50, i32 0, i32 2
  %52 = load ptr, ptr %51, align 8, !tbaa !25
  %53 = getelementptr inbounds double, ptr %52, i64 1
  %54 = load double, ptr %53, align 8, !tbaa !18
  store double %54, ptr %15, align 8, !tbaa !18
  %55 = load ptr, ptr %8, align 8, !tbaa !16
  %56 = getelementptr inbounds nuw %struct._generic_N_Vector, ptr %55, i32 0, i32 0
  %57 = load ptr, ptr %56, align 8, !tbaa !22
  %58 = getelementptr inbounds nuw %struct._N_VectorContent_Serial, ptr %57, i32 0, i32 2
  %59 = load ptr, ptr %58, align 8, !tbaa !25
  %60 = getelementptr inbounds double, ptr %59, i64 2
  %61 = load double, ptr %60, align 8, !tbaa !18
  store double %61, ptr %16, align 8, !tbaa !18
  %62 = load double, ptr %15, align 8, !tbaa !18
  %63 = load double, ptr %14, align 8, !tbaa !18
  %64 = fsub double %62, %63
  store double %64, ptr %17, align 8, !tbaa !18
  %65 = load double, ptr %16, align 8, !tbaa !18
  %66 = load double, ptr %15, align 8, !tbaa !18
  %67 = fsub double %65, %66
  store double %67, ptr %18, align 8, !tbaa !18
  %68 = load double, ptr %12, align 8, !tbaa !18
  %69 = load double, ptr %13, align 8, !tbaa !18
  %70 = fmul double %68, %69
  store double %70, ptr %19, align 8, !tbaa !18
  %71 = load double, ptr %11, align 8, !tbaa !18
  %72 = load double, ptr %17, align 8, !tbaa !18
  %73 = fmul double %71, %72
  %74 = load ptr, ptr %9, align 8, !tbaa !16
  %75 = getelementptr inbounds nuw %struct._generic_N_Vector, ptr %74, i32 0, i32 0
  %76 = load ptr, ptr %75, align 8, !tbaa !22
  %77 = getelementptr inbounds nuw %struct._N_VectorContent_Serial, ptr %76, i32 0, i32 2
  %78 = load ptr, ptr %77, align 8, !tbaa !25
  %79 = getelementptr inbounds double, ptr %78, i64 0
  store double %73, ptr %79, align 8, !tbaa !18
  %80 = load double, ptr %19, align 8, !tbaa !18
  %81 = fneg double %80
  %82 = load double, ptr %17, align 8, !tbaa !18
  %83 = fmul double %81, %82
  %84 = load ptr, ptr %9, align 8, !tbaa !16
  %85 = getelementptr inbounds nuw %struct._generic_N_Vector, ptr %84, i32 0, i32 0
  %86 = load ptr, ptr %85, align 8, !tbaa !22
  %87 = getelementptr inbounds nuw %struct._N_VectorContent_Serial, ptr %86, i32 0, i32 2
  %88 = load ptr, ptr %87, align 8, !tbaa !25
  %89 = getelementptr inbounds double, ptr %88, i64 1
  store double %83, ptr %89, align 8, !tbaa !18
  %90 = load double, ptr %12, align 8, !tbaa !18
  %91 = load double, ptr %12, align 8, !tbaa !18
  %92 = fmul double %90, %91
  %93 = load double, ptr %18, align 8, !tbaa !18
  %94 = fmul double %92, %93
  %95 = load ptr, ptr %9, align 8, !tbaa !16
  %96 = getelementptr inbounds nuw %struct._generic_N_Vector, ptr %95, i32 0, i32 0
  %97 = load ptr, ptr %96, align 8, !tbaa !22
  %98 = getelementptr inbounds nuw %struct._N_VectorContent_Serial, ptr %97, i32 0, i32 2
  %99 = load ptr, ptr %98, align 8, !tbaa !25
  %100 = getelementptr inbounds double, ptr %99, i64 2
  store double %94, ptr %100, align 8, !tbaa !18
  call void @llvm.lifetime.end.p0(i64 8, ptr %19) #6
  call void @llvm.lifetime.end.p0(i64 8, ptr %18) #6
  call void @llvm.lifetime.end.p0(i64 8, ptr %17) #6
  call void @llvm.lifetime.end.p0(i64 8, ptr %16) #6
  call void @llvm.lifetime.end.p0(i64 8, ptr %15) #6
  call void @llvm.lifetime.end.p0(i64 8, ptr %14) #6
  call void @llvm.lifetime.end.p0(i64 8, ptr %13) #6
  call void @llvm.lifetime.end.p0(i64 8, ptr %12) #6
  call void @llvm.lifetime.end.p0(i64 8, ptr %11) #6
  ret i32 0
}