; Function Attrs: mustprogress nofree norecurse nosync nounwind willreturn memory(readwrite, inaccessiblemem: none) uwtable
define internal noundef i32 @fQB(double %0, ptr noundef readonly captures(none) %1, ptr noundef readonly captures(none) %2, ptr noundef readonly captures(none) %3, ptr readnone captures(none) %4) #5 {
  %6 = load ptr, ptr %1, align 8, !tbaa !13
  %7 = getelementptr inbounds nuw i8, ptr %6, i64 16
  %8 = load ptr, ptr %7, align 8, !tbaa !16
  %9 = load double, ptr %8, align 8, !tbaa !9
  %10 = getelementptr inbounds nuw i8, ptr %8, i64 8
  %11 = load double, ptr %10, align 8, !tbaa !9
  %12 = getelementptr inbounds nuw i8, ptr %8, i64 16
  %13 = load double, ptr %12, align 8, !tbaa !9
  %14 = load ptr, ptr %2, align 8, !tbaa !13
  %15 = getelementptr inbounds nuw i8, ptr %14, i64 16
  %16 = load ptr, ptr %15, align 8, !tbaa !16
  %17 = load double, ptr %16, align 8, !tbaa !9
  %18 = getelementptr inbounds nuw i8, ptr %16, i64 8
  %19 = load double, ptr %18, align 8, !tbaa !9
  %20 = getelementptr inbounds nuw i8, ptr %16, i64 16
  %21 = load double, ptr %20, align 8, !tbaa !9
  %22 = fsub double %19, %17
  %23 = fsub double %21, %19
  %24 = fmul double %9, %22
  %25 = load ptr, ptr %3, align 8, !tbaa !13
  %26 = getelementptr inbounds nuw i8, ptr %25, i64 16
  %27 = load ptr, ptr %26, align 8, !tbaa !16
  store double %24, ptr %27, align 8, !tbaa !9
  %28 = fneg double %13
  %29 = fmul double %11, %28
  %30 = fmul double %29, %22
  %31 = getelementptr inbounds nuw i8, ptr %27, i64 8
  store double %30, ptr %31, align 8, !tbaa !9
  %32 = fmul double %11, %11
  %33 = fmul double %32, %23
  %34 = getelementptr inbounds nuw i8, ptr %27, i64 16
  store double %33, ptr %34, align 8, !tbaa !9
  ret i32 0
}